target datalayout = "e-m:e-p270:32:32-p271:32:32-p272:64:64-i64:64-i128:128-f80:128-n8:16:32:64-S128"
target triple = "x86_64-pc-linux-gnu"

%"class.vcg::Point3" = type { [3 x float] }
%"class.vcg::Transform" = type { %"class.vcg::Similarityf", %"class.vcg::Point3", float }
%"class.vcg::Similarityf" = type { %"class.vcg::Similarity" }
%"class.vcg::Similarity" = type { %"class.vcg::Quaternion", %"class.vcg::Point3", float }
%"class.vcg::Quaternion" = type { %"class.vcg::Point4" }
%"class.vcg::Point4" = type { [4 x float] }

@.str = private unnamed_addr constant [35 x i8] c"trackball(%f,%f,%f,%f,%f,%f,%f,%f)\00", align 1

; Function Attrs: mustprogress nounwind uwtable
define void @_ZN3vcg9Trackball7ToAsciiEPc(ptr noundef nonnull align 8 dereferenceable(597) %0, ptr noundef %1) #4 align 2 {
  %3 = alloca ptr, align 8
  %4 = alloca ptr, align 8
  %5 = alloca ptr, align 8
  store ptr %0, ptr %3, align 8
  store ptr %1, ptr %4, align 8
  %6 = load ptr, ptr %3, align 8
  %7 = getelementptr inbounds %"class.vcg::Transform", ptr %6, i32 0, i32 0
  store ptr %7, ptr %5, align 8
  %8 = load ptr, ptr %4, align 8
  %9 = load ptr, ptr %5, align 8
  %10 = getelementptr inbounds float, ptr %9, i64 0
  %11 = load float, ptr %10, align 4
  %12 = fpext float %11 to double
  %13 = load ptr, ptr %5, align 8
  %14 = getelementptr inbounds float, ptr %13, i64 1
  %15 = load float, ptr %14, align 4
  %16 = fpext float %15 to double
  %17 = load ptr, ptr %5, align 8
  %18 = getelementptr inbounds float, ptr %17, i64 2
  %19 = load float, ptr %18, align 4
  %20 = fpext float %19 to double
  %21 = load ptr, ptr %5, align 8
  %22 = getelementptr inbounds float, ptr %21, i64 3
  %23 = load float, ptr %22, align 4
  %24 = fpext float %23 to double
  %25 = load ptr, ptr %5, align 8
  %26 = getelementptr inbounds float, ptr %25, i64 4
  %27 = load float, ptr %26, align 4
  %28 = fpext float %27 to double
  %29 = load ptr, ptr %5, align 8
  %30 = getelementptr inbounds float, ptr %29, i64 5
  %31 = load float, ptr %30, align 4
  %32 = fpext float %31 to double
  %33 = load ptr, ptr %5, align 8
  %34 = getelementptr inbounds float, ptr %33, i64 6
  %35 = load float, ptr %34, align 4
  %36 = fpext float %35 to double
  %37 = load ptr, ptr %5, align 8
  %38 = getelementptr inbounds float, ptr %37, i64 7
  %39 = load float, ptr %38, align 4
  %40 = fpext float %39 to double
  %41 = call i32 (ptr, ptr, ...) @sprintf(ptr noundef %8, ptr noundef @.str, double noundef %12, double noundef %16, double noundef %20, double noundef %24, double noundef %28, double noundef %32, double noundef %36, double noundef %40) #3
  ret void
}