; Function Attrs: mustprogress nofree nounwind uwtable
define void @_ZN3vcg9Trackball7ToAsciiEPc(ptr nocapture noundef nonnull readonly align 8 dereferenceable(597) %0, ptr nocapture noundef writeonly %1) local_unnamed_addr #18 align 2 {
  %3 = load float, ptr %0, align 8
  %4 = fpext float %3 to double
  %5 = getelementptr inbounds i8, ptr %0, i64 4
  %6 = load float, ptr %5, align 4
  %7 = fpext float %6 to double
  %8 = getelementptr inbounds i8, ptr %0, i64 8
  %9 = load float, ptr %8, align 8
  %10 = fpext float %9 to double
  %11 = getelementptr inbounds i8, ptr %0, i64 12
  %12 = load float, ptr %11, align 4
  %13 = fpext float %12 to double
  %14 = getelementptr inbounds i8, ptr %0, i64 16
  %15 = load float, ptr %14, align 8
  %16 = fpext float %15 to double
  %17 = getelementptr inbounds i8, ptr %0, i64 20
  %18 = load float, ptr %17, align 4
  %19 = fpext float %18 to double
  %20 = getelementptr inbounds i8, ptr %0, i64 24
  %21 = load float, ptr %20, align 8
  %22 = fpext float %21 to double
  %23 = getelementptr inbounds i8, ptr %0, i64 28
  %24 = load float, ptr %23, align 4
  %25 = fpext float %24 to double
  %26 = tail call i32 (ptr, ptr, ...) @sprintf(ptr noundef nonnull dereferenceable(1) %1, ptr noundef nonnull dereferenceable(1) @.str, double noundef %4, double noundef %7, double noundef %10, double noundef %13, double noundef %16, double noundef %19, double noundef %22, double noundef %25) #27
  ret void
}